(dp1
S'date'
p2
cdatetime
date
p3
(S'\x07\xde\x01\x01'
tRp4
s.(dp1
S'date'
p2
cdatetime
date
p3
(S'\x07\xde\x01\x02'
tRp4
s.(dp1
S'date'
p2
cdatetime
date
p3
(S'\x07\xde\x01\x03'
tRp4
s.(dp1
S'date'
p2
cdatetime
date
p3
(S'\x07\xde\x01\x04'
tRp4
s.(dp1
S'date'
p2
cdatetime
date
p3
(S'\x07\xde\x01\x05'
tRp4
s.(dp1
S'date'
p2
cdatetime
date
p3
(S'\x07\xde\x01\x06'
tRp4
s.(dp1
S'date'
p2
cdatetime
date
p3
(S'\x07\xde\x01\x07'
tRp4
s.(dp1
S'date'
p2
cdatetime
date
p3
(S'\x07\xde\x01\x08'
tRp4
s.(dp1
S'date'
p2
cdatetime
date
p3
(S'\x07\xde\x01\t'
tRp4
s.(dp1
S'date'
p2
cdatetime
date
p3
(S'\x07\xde\x01\n'
tRp4
s.(dp1
S'date'
p2
cdatetime
date
p3
(S'\x07\xde\x01\x0b'
tRp4
s.(dp1
S'date'
p2
cdatetime
date
p3
(S'\x07\xde\x01\x0c'
tRp4
s.(dp1
S'date'
p2
cdatetime
date
p3
(S'\x07\xde\x01\r'
tRp4
s.(dp1
S'date'
p2
cdatetime
date
p3
(S'\x07\xde\x01\x0e'
tRp4
s.(dp1
S'date'
p2
cdatetime
date
p3
(S'\x07\xde\x01\x0f'
tRp4
s.(dp1
S'date'
p2
cdatetime
date
p3
(S'\x07\xde\x01\x10'
tRp4
s.(dp1
S'date'
p2
cdatetime
date
p3
(S'\x07\xde\x01\x11'
tRp4
s.(dp1
S'date'
p2
cdatetime
date
p3
(S'\x07\xde\x01\x12'
tRp4
s.(dp1
S'date'
p2
cdatetime
date
p3
(S'\x07\xde\x01\x13'
tRp4
s.(dp1
S'date'
p2
cdatetime
date
p3
(S'\x07\xde\x01\x14'
tRp4
s.(dp1
S'date'
p2
cdatetime
date
p3
(S'\x07\xde\x01\x15'
tRp4
s.(dp1
S'date'
p2
cdatetime
date
p3
(S'\x07\xde\x01\x16'
tRp4
s.(dp1
S'date'
p2
cdatetime
date
p3
(S'\x07\xde\x01\x17'
tRp4
s.(dp1
S'date'
p2
cdatetime
date
p3
(S'\x07\xde\x01\x18'
tRp4
s.(dp1
S'date'
p2
cdatetime
date
p3
(S'\x07\xde\x01\x19'
tRp4
s.(dp1
S'date'
p2
cdatetime
date
p3
(S'\x07\xde\x01\x1a'
tRp4
s.(dp1
S'date'
p2
cdatetime
date
p3
(S'\x07\xde\x01\x1b'
tRp4
s.(dp1
S'date'
p2
cdatetime
date
p3
(S'\x07\xde\x01\x1c'
tRp4
s.(dp1
S'date'
p2
cdatetime
date
p3
(S'\x07\xde\x01\x1d'
tRp4
s.(dp1
S'date'
p2
cdatetime
date
p3
(S'\x07\xde\x01\x1e'
tRp4
s.(dp1
S'date'
p2
cdatetime
date
p3
(S'\x07\xde\x01\x1f'
tRp4
s.(dp1
S'date'
p2
cdatetime
date
p3
(S'\x07\xde\x02\x01'
tRp4
s.(dp1
S'date'
p2
cdatetime
date
p3
(S'\x07\xde\x02\x02'
tRp4
s.(dp1
S'date'
p2
cdatetime
date
p3
(S'\x07\xde\x02\x03'
tRp4
s.(dp1
S'date'
p2
cdatetime
date
p3
(S'\x07\xde\x02\x04'
tRp4
s.(dp1
S'date'
p2
cdatetime
date
p3
(S'\x07\xde\x02\x05'
tRp4
s.(dp1
S'date'
p2
cdatetime
date
p3
(S'\x07\xde\x02\x06'
tRp4
s.(dp1
S'date'
p2
cdatetime
date
p3
(S'\x07\xde\x02\x07'
tRp4
s.(dp1
S'date'
p2
cdatetime
date
p3
(S'\x07\xde\x02\x08'
tRp4
s.(dp1
S'date'
p2
cdatetime
date
p3
(S'\x07\xde\x02\t'
tRp4
s.(dp1
S'date'
p2
cdatetime
date
p3
(S'\x07\xde\x02\n'
tRp4
s.(dp1
S'date'
p2
cdatetime
date
p3
(S'\x07\xde\x02\x0b'
tRp4
s.(dp1
S'date'
p2
cdatetime
date
p3
(S'\x07\xde\x02\x0c'
tRp4
s.(dp1
S'date'
p2
cdatetime
date
p3
(S'\x07\xde\x02\r'
tRp4
s.(dp1
S'date'
p2
cdatetime
date
p3
(S'\x07\xde\x02\x0e'
tRp4
s.(dp1
S'date'
p2
cdatetime
date
p3
(S'\x07\xde\x02\x0f'
tRp4
s.(dp1
S'date'
p2
cdatetime
date
p3
(S'\x07\xde\x02\x10'
tRp4
s.(dp1
S'date'
p2
cdatetime
date
p3
(S'\x07\xde\x02\x11'
tRp4
s.(dp1
S'date'
p2
cdatetime
date
p3
(S'\x07\xde\x02\x12'
tRp4
s.(dp1
S'date'
p2
cdatetime
date
p3
(S'\x07\xde\x02\x13'
tRp4
s.(dp1
S'date'
p2
cdatetime
date
p3
(S'\x07\xde\x02\x14'
tRp4
s.(dp1
S'date'
p2
cdatetime
date
p3
(S'\x07\xde\x02\x15'
tRp4
s.(dp1
S'date'
p2
cdatetime
date
p3
(S'\x07\xde\x02\x16'
tRp4
s.(dp1
S'date'
p2
cdatetime
date
p3
(S'\x07\xde\x02\x17'
tRp4
s.(dp1
S'date'
p2
cdatetime
date
p3
(S'\x07\xde\x02\x18'
tRp4
s.(dp1
S'date'
p2
cdatetime
date
p3
(S'\x07\xde\x02\x19'
tRp4
s.(dp1
S'date'
p2
cdatetime
date
p3
(S'\x07\xde\x02\x1a'
tRp4
s.(dp1
S'date'
p2
cdatetime
date
p3
(S'\x07\xde\x02\x1b'
tRp4
s.(dp1
S'date'
p2
cdatetime
date
p3
(S'\x07\xde\x02\x1c'
tRp4
s.(dp1
S'date'
p2
cdatetime
date
p3
(S'\x07\xde\x03\x01'
tRp4
s.(dp1
S'date'
p2
cdatetime
date
p3
(S'\x07\xde\x03\x02'
tRp4
s.(dp1
S'date'
p2
cdatetime
date
p3
(S'\x07\xde\x03\x03'
tRp4
s.(dp1
S'date'
p2
cdatetime
date
p3
(S'\x07\xde\x03\x04'
tRp4
s.(dp1
S'date'
p2
cdatetime
date
p3
(S'\x07\xde\x03\x05'
tRp4
s.(dp1
S'date'
p2
cdatetime
date
p3
(S'\x07\xde\x03\x06'
tRp4
s.(dp1
S'date'
p2
cdatetime
date
p3
(S'\x07\xde\x03\x07'
tRp4
s.(dp1
S'date'
p2
cdatetime
date
p3
(S'\x07\xde\x03\x08'
tRp4
s.(dp1
S'date'
p2
cdatetime
date
p3
(S'\x07\xde\x03\t'
tRp4
s.(dp1
S'date'
p2
cdatetime
date
p3
(S'\x07\xde\x03\n'
tRp4
s.(dp1
S'date'
p2
cdatetime
date
p3
(S'\x07\xde\x03\x0b'
tRp4
s.(dp1
S'date'
p2
cdatetime
date
p3
(S'\x07\xde\x03\x0c'
tRp4
s.(dp1
S'date'
p2
cdatetime
date
p3
(S'\x07\xde\x03\r'
tRp4
s.(dp1
S'date'
p2
cdatetime
date
p3
(S'\x07\xde\x03\x0e'
tRp4
s.(dp1
S'date'
p2
cdatetime
date
p3
(S'\x07\xde\x03\x0f'
tRp4
s.(dp1
S'date'
p2
cdatetime
date
p3
(S'\x07\xde\x03\x10'
tRp4
s.(dp1
S'date'
p2
cdatetime
date
p3
(S'\x07\xde\x03\x11'
tRp4
s.(dp1
S'date'
p2
cdatetime
date
p3
(S'\x07\xde\x03\x12'
tRp4
s.(dp1
S'date'
p2
cdatetime
date
p3
(S'\x07\xde\x03\x13'
tRp4
s.(dp1
S'date'
p2
cdatetime
date
p3
(S'\x07\xde\x03\x14'
tRp4
s.(dp1
S'date'
p2
cdatetime
date
p3
(S'\x07\xde\x03\x15'
tRp4
s.(dp1
S'date'
p2
cdatetime
date
p3
(S'\x07\xde\x03\x16'
tRp4
s.(dp1
S'date'
p2
cdatetime
date
p3
(S'\x07\xde\x03\x17'
tRp4
s.(dp1
S'date'
p2
cdatetime
date
p3
(S'\x07\xde\x03\x18'
tRp4
s.(dp1
S'date'
p2
cdatetime
date
p3
(S'\x07\xde\x03\x19'
tRp4
s.(dp1
S'date'
p2
cdatetime
date
p3
(S'\x07\xde\x03\x1a'
tRp4
s.(dp1
S'date'
p2
cdatetime
date
p3
(S'\x07\xde\x03\x1b'
tRp4
s.(dp1
S'date'
p2
cdatetime
date
p3
(S'\x07\xde\x03\x1c'
tRp4
s.(dp1
S'date'
p2
cdatetime
date
p3
(S'\x07\xde\x03\x1d'
tRp4
s.(dp1
S'date'
p2
cdatetime
date
p3
(S'\x07\xde\x03\x1e'
tRp4
s.(dp1
S'date'
p2
cdatetime
date
p3
(S'\x07\xde\x03\x1f'
tRp4
s.(dp1
S'date'
p2
cdatetime
date
p3
(S'\x07\xde\x04\x01'
tRp4
s.(dp1
S'date'
p2
cdatetime
date
p3
(S'\x07\xde\x04\x02'
tRp4
s.(dp1
S'date'
p2
cdatetime
date
p3
(S'\x07\xde\x04\x03'
tRp4
s.(dp1
S'date'
p2
cdatetime
date
p3
(S'\x07\xde\x04\x04'
tRp4
s.(dp1
S'date'
p2
cdatetime
date
p3
(S'\x07\xde\x04\x05'
tRp4
s.(dp1
S'date'
p2
cdatetime
date
p3
(S'\x07\xde\x04\x06'
tRp4
s.(dp1
S'date'
p2
cdatetime
date
p3
(S'\x07\xde\x04\x07'
tRp4
s.(dp1
S'date'
p2
cdatetime
date
p3
(S'\x07\xde\x04\x08'
tRp4
s.(dp1
S'date'
p2
cdatetime
date
p3
(S'\x07\xde\x04\t'
tRp4
s.(dp1
S'date'
p2
cdatetime
date
p3
(S'\x07\xde\x04\n'
tRp4
s.(dp1
S'date'
p2
cdatetime
date
p3
(S'\x07\xde\x04\x0b'
tRp4
s.(dp1
S'date'
p2
cdatetime
date
p3
(S'\x07\xde\x04\x0c'
tRp4
s.(dp1
S'date'
p2
cdatetime
date
p3
(S'\x07\xde\x04\r'
tRp4
s.(dp1
S'date'
p2
cdatetime
date
p3
(S'\x07\xde\x04\x0e'
tRp4
s.(dp1
S'date'
p2
cdatetime
date
p3
(S'\x07\xde\x04\x0f'
tRp4
s.(dp1
S'date'
p2
cdatetime
date
p3
(S'\x07\xde\x04\x10'
tRp4
s.(dp1
S'date'
p2
cdatetime
date
p3
(S'\x07\xde\x04\x11'
tRp4
s.(dp1
S'date'
p2
cdatetime
date
p3
(S'\x07\xde\x04\x12'
tRp4
s.(dp1
S'date'
p2
cdatetime
date
p3
(S'\x07\xde\x04\x13'
tRp4
s.(dp1
S'date'
p2
cdatetime
date
p3
(S'\x07\xde\x04\x14'
tRp4
s.(dp1
S'date'
p2
cdatetime
date
p3
(S'\x07\xde\x04\x15'
tRp4
s.(dp1
S'date'
p2
cdatetime
date
p3
(S'\x07\xde\x04\x16'
tRp4
s.(dp1
S'date'
p2
cdatetime
date
p3
(S'\x07\xde\x04\x17'
tRp4
s.(dp1
S'date'
p2
cdatetime
date
p3
(S'\x07\xde\x04\x18'
tRp4
s.(dp1
S'date'
p2
cdatetime
date
p3
(S'\x07\xde\x04\x19'
tRp4
s.(dp1
S'date'
p2
cdatetime
date
p3
(S'\x07\xde\x04\x1a'
tRp4
s.(dp1
S'date'
p2
cdatetime
date
p3
(S'\x07\xde\x04\x1b'
tRp4
s.(dp1
S'date'
p2
cdatetime
date
p3
(S'\x07\xde\x04\x1c'
tRp4
s.(dp1
S'date'
p2
cdatetime
date
p3
(S'\x07\xde\x04\x1d'
tRp4
s.(dp1
S'date'
p2
cdatetime
date
p3
(S'\x07\xde\x04\x1e'
tRp4
s.(dp1
S'date'
p2
cdatetime
date
p3
(S'\x07\xde\x05\x01'
tRp4
s.(dp1
S'date'
p2
cdatetime
date
p3
(S'\x07\xde\x05\x02'
tRp4
s.(dp1
S'date'
p2
cdatetime
date
p3
(S'\x07\xde\x05\x03'
tRp4
s.(dp1
S'date'
p2
cdatetime
date
p3
(S'\x07\xde\x05\x04'
tRp4
s.(dp1
S'date'
p2
cdatetime
date
p3
(S'\x07\xde\x05\x05'
tRp4
s.(dp1
S'date'
p2
cdatetime
date
p3
(S'\x07\xde\x05\x06'
tRp4
s.(dp1
S'date'
p2
cdatetime
date
p3
(S'\x07\xde\x05\x07'
tRp4
s.(dp1
S'date'
p2
cdatetime
date
p3
(S'\x07\xde\x05\x08'
tRp4
s.(dp1
S'date'
p2
cdatetime
date
p3
(S'\x07\xde\x05\t'
tRp4
s.(dp1
S'date'
p2
cdatetime
date
p3
(S'\x07\xde\x05\n'
tRp4
s.(dp1
S'date'
p2
cdatetime
date
p3
(S'\x07\xde\x05\x0b'
tRp4
s.(dp1
S'date'
p2
cdatetime
date
p3
(S'\x07\xde\x05\x0c'
tRp4
s.(dp1
S'date'
p2
cdatetime
date
p3
(S'\x07\xde\x05\r'
tRp4
s.(dp1
S'date'
p2
cdatetime
date
p3
(S'\x07\xde\x05\x0e'
tRp4
s.(dp1
S'date'
p2
cdatetime
date
p3
(S'\x07\xde\x05\x0f'
tRp4
s.(dp1
S'date'
p2
cdatetime
date
p3
(S'\x07\xde\x05\x10'
tRp4
s.(dp1
S'date'
p2
cdatetime
date
p3
(S'\x07\xde\x05\x11'
tRp4
s.(dp1
S'date'
p2
cdatetime
date
p3
(S'\x07\xde\x05\x12'
tRp4
s.(dp1
S'date'
p2
cdatetime
date
p3
(S'\x07\xde\x05\x13'
tRp4
s.(dp1
S'date'
p2
cdatetime
date
p3
(S'\x07\xde\x05\x14'
tRp4
s.(dp1
S'date'
p2
cdatetime
date
p3
(S'\x07\xde\x05\x15'
tRp4
s.(dp1
S'date'
p2
cdatetime
date
p3
(S'\x07\xde\x05\x16'
tRp4
s.(dp1
S'date'
p2
cdatetime
date
p3
(S'\x07\xde\x05\x17'
tRp4
s.(dp1
S'date'
p2
cdatetime
date
p3
(S'\x07\xde\x05\x18'
tRp4
s.(dp1
S'date'
p2
cdatetime
date
p3
(S'\x07\xde\x05\x19'
tRp4
s.(dp1
S'date'
p2
cdatetime
date
p3
(S'\x07\xde\x05\x1a'
tRp4
s.(dp1
S'date'
p2
cdatetime
date
p3
(S'\x07\xde\x05\x1b'
tRp4
s.(dp1
S'date'
p2
cdatetime
date
p3
(S'\x07\xde\x05\x1c'
tRp4
s.(dp1
S'date'
p2
cdatetime
date
p3
(S'\x07\xde\x05\x1d'
tRp4
s.(dp1
S'date'
p2
cdatetime
date
p3
(S'\x07\xde\x05\x1e'
tRp4
s.(dp1
S'date'
p2
cdatetime
date
p3
(S'\x07\xde\x05\x1f'
tRp4
s.(dp1
S'date'
p2
cdatetime
date
p3
(S'\x07\xde\x06\x01'
tRp4
s.(dp1
S'date'
p2
cdatetime
date
p3
(S'\x07\xde\x06\x02'
tRp4
s.(dp1
S'date'
p2
cdatetime
date
p3
(S'\x07\xde\x06\x03'
tRp4
s.(dp1
S'date'
p2
cdatetime
date
p3
(S'\x07\xde\x06\x04'
tRp4
s.(dp1
S'date'
p2
cdatetime
date
p3
(S'\x07\xde\x06\x05'
tRp4
s.(dp1
S'date'
p2
cdatetime
date
p3
(S'\x07\xde\x06\x06'
tRp4
s.(dp1
S'date'
p2
cdatetime
date
p3
(S'\x07\xde\x06\x07'
tRp4
s.(dp1
S'date'
p2
cdatetime
date
p3
(S'\x07\xde\x06\x08'
tRp4
s.(dp1
S'date'
p2
cdatetime
date
p3
(S'\x07\xde\x06\t'
tRp4
s.(dp1
S'date'
p2
cdatetime
date
p3
(S'\x07\xde\x06\n'
tRp4
s.(dp1
S'date'
p2
cdatetime
date
p3
(S'\x07\xde\x06\x0b'
tRp4
s.(dp1
S'date'
p2
cdatetime
date
p3
(S'\x07\xde\x06\x0c'
tRp4
s.(dp1
S'date'
p2
cdatetime
date
p3
(S'\x07\xde\x06\r'
tRp4
s.(dp1
S'date'
p2
cdatetime
date
p3
(S'\x07\xde\x06\x0e'
tRp4
s.(dp1
S'date'
p2
cdatetime
date
p3
(S'\x07\xde\x06\x0f'
tRp4
s.(dp1
S'date'
p2
cdatetime
date
p3
(S'\x07\xde\x06\x10'
tRp4
s.(dp1
S'date'
p2
cdatetime
date
p3
(S'\x07\xde\x06\x11'
tRp4
s.(dp1
S'date'
p2
cdatetime
date
p3
(S'\x07\xde\x06\x12'
tRp4
s.(dp1
S'date'
p2
cdatetime
date
p3
(S'\x07\xde\x06\x13'
tRp4
s.(dp1
S'date'
p2
cdatetime
date
p3
(S'\x07\xde\x06\x14'
tRp4
s.(dp1
S'date'
p2
cdatetime
date
p3
(S'\x07\xde\x06\x15'
tRp4
s.(dp1
S'date'
p2
cdatetime
date
p3
(S'\x07\xde\x06\x16'
tRp4
s.(dp1
S'date'
p2
cdatetime
date
p3
(S'\x07\xde\x06\x17'
tRp4
s.(dp1
S'date'
p2
cdatetime
date
p3
(S'\x07\xde\x06\x18'
tRp4
s.(dp1
S'date'
p2
cdatetime
date
p3
(S'\x07\xde\x06\x19'
tRp4
s.(dp1
S'date'
p2
cdatetime
date
p3
(S'\x07\xde\x06\x1a'
tRp4
s.(dp1
S'date'
p2
cdatetime
date
p3
(S'\x07\xde\x06\x1b'
tRp4
s.(dp1
S'date'
p2
cdatetime
date
p3
(S'\x07\xde\x06\x1c'
tRp4
s.(dp1
S'date'
p2
cdatetime
date
p3
(S'\x07\xde\x06\x1d'
tRp4
s.(dp1
S'date'
p2
cdatetime
date
p3
(S'\x07\xde\x06\x1e'
tRp4
s.(dp1
S'date'
p2
cdatetime
date
p3
(S'\x07\xde\x07\x01'
tRp4
s.(dp1
S'date'
p2
cdatetime
date
p3
(S'\x07\xde\x07\x02'
tRp4
s.(dp1
S'date'
p2
cdatetime
date
p3
(S'\x07\xde\x07\x03'
tRp4
s.(dp1
S'date'
p2
cdatetime
date
p3
(S'\x07\xde\x07\x04'
tRp4
s.(dp1
S'date'
p2
cdatetime
date
p3
(S'\x07\xde\x07\x05'
tRp4
s.(dp1
S'date'
p2
cdatetime
date
p3
(S'\x07\xde\x07\x06'
tRp4
s.(dp1
S'date'
p2
cdatetime
date
p3
(S'\x07\xde\x07\x07'
tRp4
s.(dp1
S'date'
p2
cdatetime
date
p3
(S'\x07\xde\x07\x08'
tRp4
s.(dp1
S'date'
p2
cdatetime
date
p3
(S'\x07\xde\x07\t'
tRp4
s.(dp1
S'date'
p2
cdatetime
date
p3
(S'\x07\xde\x07\n'
tRp4
s.(dp1
S'date'
p2
cdatetime
date
p3
(S'\x07\xde\x07\x0b'
tRp4
s.(dp1
S'date'
p2
cdatetime
date
p3
(S'\x07\xde\x07\x0c'
tRp4
s.(dp1
S'date'
p2
cdatetime
date
p3
(S'\x07\xde\x07\r'
tRp4
s.(dp1
S'date'
p2
cdatetime
date
p3
(S'\x07\xde\x07\x0e'
tRp4
s.(dp1
S'date'
p2
cdatetime
date
p3
(S'\x07\xde\x07\x0f'
tRp4
s.(dp1
S'date'
p2
cdatetime
date
p3
(S'\x07\xde\x07\x10'
tRp4
s.(dp1
S'date'
p2
cdatetime
date
p3
(S'\x07\xde\x07\x11'
tRp4
s.(dp1
S'date'
p2
cdatetime
date
p3
(S'\x07\xde\x07\x12'
tRp4
s.(dp1
S'date'
p2
cdatetime
date
p3
(S'\x07\xde\x07\x13'
tRp4
s.(dp1
S'date'
p2
cdatetime
date
p3
(S'\x07\xde\x07\x14'
tRp4
s.(dp1
S'date'
p2
cdatetime
date
p3
(S'\x07\xde\x07\x15'
tRp4
s.(dp1
S'date'
p2
cdatetime
date
p3
(S'\x07\xde\x07\x16'
tRp4
s.(dp1
S'date'
p2
cdatetime
date
p3
(S'\x07\xde\x07\x17'
tRp4
s.(dp1
S'date'
p2
cdatetime
date
p3
(S'\x07\xde\x07\x18'
tRp4
s.(dp1
S'date'
p2
cdatetime
date
p3
(S'\x07\xde\x07\x19'
tRp4
s.(dp1
S'date'
p2
cdatetime
date
p3
(S'\x07\xde\x07\x1a'
tRp4
s.(dp1
S'date'
p2
cdatetime
date
p3
(S'\x07\xde\x07\x1b'
tRp4
s.(dp1
S'date'
p2
cdatetime
date
p3
(S'\x07\xde\x07\x1c'
tRp4
s.(dp1
S'date'
p2
cdatetime
date
p3
(S'\x07\xde\x07\x1d'
tRp4
s.(dp1
S'date'
p2
cdatetime
date
p3
(S'\x07\xde\x07\x1e'
tRp4
s.(dp1
S'date'
p2
cdatetime
date
p3
(S'\x07\xde\x07\x1f'
tRp4
s.(dp1
S'date'
p2
cdatetime
date
p3
(S'\x07\xde\x08\x01'
tRp4
s.(dp1
S'date'
p2
cdatetime
date
p3
(S'\x07\xde\x08\x02'
tRp4
s.(dp1
S'date'
p2
cdatetime
date
p3
(S'\x07\xde\x08\x03'
tRp4
s.(dp1
S'date'
p2
cdatetime
date
p3
(S'\x07\xde\x08\x04'
tRp4
s.(dp1
S'date'
p2
cdatetime
date
p3
(S'\x07\xde\x08\x05'
tRp4
s.(dp1
S'date'
p2
cdatetime
date
p3
(S'\x07\xde\x08\x06'
tRp4
s.(dp1
S'date'
p2
cdatetime
date
p3
(S'\x07\xde\x08\x07'
tRp4
s.(dp1
S'date'
p2
cdatetime
date
p3
(S'\x07\xde\x08\x08'
tRp4
s.(dp1
S'date'
p2
cdatetime
date
p3
(S'\x07\xde\x08\t'
tRp4
s.(dp1
S'date'
p2
cdatetime
date
p3
(S'\x07\xde\x08\n'
tRp4
s.(dp1
S'date'
p2
cdatetime
date
p3
(S'\x07\xde\x08\x0b'
tRp4
s.(dp1
S'date'
p2
cdatetime
date
p3
(S'\x07\xde\x08\x0c'
tRp4
s.(dp1
S'date'
p2
cdatetime
date
p3
(S'\x07\xde\x08\r'
tRp4
s.(dp1
S'date'
p2
cdatetime
date
p3
(S'\x07\xde\x08\x0e'
tRp4
s.(dp1
S'date'
p2
cdatetime
date
p3
(S'\x07\xde\x08\x0f'
tRp4
s.(dp1
S'date'
p2
cdatetime
date
p3
(S'\x07\xde\x08\x10'
tRp4
s.(dp1
S'date'
p2
cdatetime
date
p3
(S'\x07\xde\x08\x11'
tRp4
s.(dp1
S'date'
p2
cdatetime
date
p3
(S'\x07\xde\x08\x12'
tRp4
s.(dp1
S'date'
p2
cdatetime
date
p3
(S'\x07\xde\x08\x13'
tRp4
s.(dp1
S'date'
p2
cdatetime
date
p3
(S'\x07\xde\x08\x14'
tRp4
s.(dp1
S'date'
p2
cdatetime
date
p3
(S'\x07\xde\x08\x15'
tRp4
s.(dp1
S'date'
p2
cdatetime
date
p3
(S'\x07\xde\x08\x16'
tRp4
s.(dp1
S'date'
p2
cdatetime
date
p3
(S'\x07\xde\x08\x17'
tRp4
s.(dp1
S'date'
p2
cdatetime
date
p3
(S'\x07\xde\x08\x18'
tRp4
s.(dp1
S'date'
p2
cdatetime
date
p3
(S'\x07\xde\x08\x19'
tRp4
s.(dp1
S'date'
p2
cdatetime
date
p3
(S'\x07\xde\x08\x1a'
tRp4
s.(dp1
S'date'
p2
cdatetime
date
p3
(S'\x07\xde\x08\x1b'
tRp4
s.(dp1
S'date'
p2
cdatetime
date
p3
(S'\x07\xde\x08\x1c'
tRp4
s.(dp1
S'date'
p2
cdatetime
date
p3
(S'\x07\xde\x08\x1d'
tRp4
s.(dp1
S'date'
p2
cdatetime
date
p3
(S'\x07\xde\x08\x1e'
tRp4
s.(dp1
S'date'
p2
cdatetime
date
p3
(S'\x07\xde\x08\x1f'
tRp4
s.(dp1
S'date'
p2
cdatetime
date
p3
(S'\x07\xde\t\x01'
tRp4
s.(dp1
S'date'
p2
cdatetime
date
p3
(S'\x07\xde\t\x02'
tRp4
s.(dp1
S'date'
p2
cdatetime
date
p3
(S'\x07\xde\t\x03'
tRp4
s.(dp1
S'date'
p2
cdatetime
date
p3
(S'\x07\xde\t\x04'
tRp4
s.(dp1
S'date'
p2
cdatetime
date
p3
(S'\x07\xde\t\x05'
tRp4
s.(dp1
S'date'
p2
cdatetime
date
p3
(S'\x07\xde\t\x06'
tRp4
s.(dp1
S'date'
p2
cdatetime
date
p3
(S'\x07\xde\t\x07'
tRp4
s.(dp1
S'date'
p2
cdatetime
date
p3
(S'\x07\xde\t\x08'
tRp4
s.(dp1
S'date'
p2
cdatetime
date
p3
(S'\x07\xde\t\t'
tRp4
s.(dp1
S'date'
p2
cdatetime
date
p3
(S'\x07\xde\t\n'
tRp4
s.(dp1
S'date'
p2
cdatetime
date
p3
(S'\x07\xde\t\x0b'
tRp4
s.(dp1
S'date'
p2
cdatetime
date
p3
(S'\x07\xde\t\x0c'
tRp4
s.(dp1
S'date'
p2
cdatetime
date
p3
(S'\x07\xde\t\r'
tRp4
s.(dp1
S'date'
p2
cdatetime
date
p3
(S'\x07\xde\t\x0e'
tRp4
s.(dp1
S'date'
p2
cdatetime
date
p3
(S'\x07\xde\t\x0f'
tRp4
s.(dp1
S'date'
p2
cdatetime
date
p3
(S'\x07\xde\t\x10'
tRp4
s.(dp1
S'date'
p2
cdatetime
date
p3
(S'\x07\xde\t\x11'
tRp4
s.(dp1
S'date'
p2
cdatetime
date
p3
(S'\x07\xde\t\x12'
tRp4
s.(dp1
S'date'
p2
cdatetime
date
p3
(S'\x07\xde\t\x13'
tRp4
s.(dp1
S'date'
p2
cdatetime
date
p3
(S'\x07\xde\t\x14'
tRp4
s.(dp1
S'date'
p2
cdatetime
date
p3
(S'\x07\xde\t\x15'
tRp4
s.(dp1
S'date'
p2
cdatetime
date
p3
(S'\x07\xde\t\x16'
tRp4
s.(dp1
S'date'
p2
cdatetime
date
p3
(S'\x07\xde\t\x17'
tRp4
s.(dp1
S'date'
p2
cdatetime
date
p3
(S'\x07\xde\t\x18'
tRp4
s.(dp1
S'date'
p2
cdatetime
date
p3
(S'\x07\xde\t\x19'
tRp4
s.(dp1
S'date'
p2
cdatetime
date
p3
(S'\x07\xde\t\x1a'
tRp4
s.(dp1
S'date'
p2
cdatetime
date
p3
(S'\x07\xde\t\x1b'
tRp4
s.(dp1
S'date'
p2
cdatetime
date
p3
(S'\x07\xde\t\x1c'
tRp4
s.(dp1
S'date'
p2
cdatetime
date
p3
(S'\x07\xde\t\x1d'
tRp4
s.(dp1
S'date'
p2
cdatetime
date
p3
(S'\x07\xde\t\x1e'
tRp4
s.(dp1
S'date'
p2
cdatetime
date
p3
(S'\x07\xde\n\x01'
tRp4
s.(dp1
S'date'
p2
cdatetime
date
p3
(S'\x07\xde\n\x02'
tRp4
s.(dp1
S'date'
p2
cdatetime
date
p3
(S'\x07\xde\n\x03'
tRp4
s.(dp1
S'date'
p2
cdatetime
date
p3
(S'\x07\xde\n\x04'
tRp4
s.(dp1
S'date'
p2
cdatetime
date
p3
(S'\x07\xde\n\x05'
tRp4
s.(dp1
S'date'
p2
cdatetime
date
p3
(S'\x07\xde\n\x06'
tRp4
s.(dp1
S'date'
p2
cdatetime
date
p3
(S'\x07\xde\n\x07'
tRp4
s.(dp1
S'date'
p2
cdatetime
date
p3
(S'\x07\xde\n\x08'
tRp4
s.(dp1
S'date'
p2
cdatetime
date
p3
(S'\x07\xde\n\t'
tRp4
s.(dp1
S'date'
p2
cdatetime
date
p3
(S'\x07\xde\n\n'
tRp4
s.(dp1
S'date'
p2
cdatetime
date
p3
(S'\x07\xde\n\x0b'
tRp4
s.(dp1
S'date'
p2
cdatetime
date
p3
(S'\x07\xde\n\x0c'
tRp4
s.(dp1
S'date'
p2
cdatetime
date
p3
(S'\x07\xde\n\r'
tRp4
s.(dp1
S'date'
p2
cdatetime
date
p3
(S'\x07\xde\n\x0e'
tRp4
s.(dp1
S'date'
p2
cdatetime
date
p3
(S'\x07\xde\n\x0f'
tRp4
s.(dp1
S'date'
p2
cdatetime
date
p3
(S'\x07\xde\n\x10'
tRp4
s.(dp1
S'date'
p2
cdatetime
date
p3
(S'\x07\xde\n\x11'
tRp4
s.(dp1
S'date'
p2
cdatetime
date
p3
(S'\x07\xde\n\x12'
tRp4
s.(dp1
S'date'
p2
cdatetime
date
p3
(S'\x07\xde\n\x13'
tRp4
s.(dp1
S'date'
p2
cdatetime
date
p3
(S'\x07\xde\n\x14'
tRp4
s.(dp1
S'date'
p2
cdatetime
date
p3
(S'\x07\xde\n\x15'
tRp4
s.(dp1
S'date'
p2
cdatetime
date
p3
(S'\x07\xde\n\x16'
tRp4
s.(dp1
S'date'
p2
cdatetime
date
p3
(S'\x07\xde\n\x17'
tRp4
s.(dp1
S'date'
p2
cdatetime
date
p3
(S'\x07\xde\n\x18'
tRp4
s.(dp1
S'date'
p2
cdatetime
date
p3
(S'\x07\xde\n\x19'
tRp4
s.(dp1
S'date'
p2
cdatetime
date
p3
(S'\x07\xde\n\x1a'
tRp4
s.(dp1
S'date'
p2
cdatetime
date
p3
(S'\x07\xde\n\x1b'
tRp4
s.(dp1
S'date'
p2
cdatetime
date
p3
(S'\x07\xde\n\x1c'
tRp4
s.(dp1
S'date'
p2
cdatetime
date
p3
(S'\x07\xde\n\x1d'
tRp4
s.(dp1
S'date'
p2
cdatetime
date
p3
(S'\x07\xde\n\x1e'
tRp4
s.(dp1
S'date'
p2
cdatetime
date
p3
(S'\x07\xde\n\x1f'
tRp4
s.(dp1
S'date'
p2
cdatetime
date
p3
(S'\x07\xde\x0b\x01'
tRp4
s.(dp1
S'date'
p2
cdatetime
date
p3
(S'\x07\xde\x0b\x02'
tRp4
s.(dp1
S'date'
p2
cdatetime
date
p3
(S'\x07\xde\x0b\x03'
tRp4
s.(dp1
S'date'
p2
cdatetime
date
p3
(S'\x07\xde\x0b\x04'
tRp4
s.(dp1
S'date'
p2
cdatetime
date
p3
(S'\x07\xde\x0b\x05'
tRp4
s.(dp1
S'date'
p2
cdatetime
date
p3
(S'\x07\xde\x0b\x06'
tRp4
s.(dp1
S'date'
p2
cdatetime
date
p3
(S'\x07\xde\x0b\x07'
tRp4
s.(dp1
S'date'
p2
cdatetime
date
p3
(S'\x07\xde\x0b\x08'
tRp4
s.(dp1
S'date'
p2
cdatetime
date
p3
(S'\x07\xde\x0b\t'
tRp4
s.(dp1
S'date'
p2
cdatetime
date
p3
(S'\x07\xde\x0b\n'
tRp4
s.(dp1
S'date'
p2
cdatetime
date
p3
(S'\x07\xde\x0b\x0b'
tRp4
s.(dp1
S'date'
p2
cdatetime
date
p3
(S'\x07\xde\x0b\x0c'
tRp4
s.(dp1
S'date'
p2
cdatetime
date
p3
(S'\x07\xde\x0b\r'
tRp4
s.(dp1
S'date'
p2
cdatetime
date
p3
(S'\x07\xde\x0b\x0e'
tRp4
s.(dp1
S'date'
p2
cdatetime
date
p3
(S'\x07\xde\x0b\x0f'
tRp4
s.(dp1
S'date'
p2
cdatetime
date
p3
(S'\x07\xde\x0b\x10'
tRp4
s.(dp1
S'date'
p2
cdatetime
date
p3
(S'\x07\xde\x0b\x11'
tRp4
s.(dp1
S'date'
p2
cdatetime
date
p3
(S'\x07\xde\x0b\x12'
tRp4
s.(dp1
S'date'
p2
cdatetime
date
p3
(S'\x07\xde\x0b\x13'
tRp4
s.(dp1
S'date'
p2
cdatetime
date
p3
(S'\x07\xde\x0b\x14'
tRp4
s.(dp1
S'date'
p2
cdatetime
date
p3
(S'\x07\xde\x0b\x15'
tRp4
s.(dp1
S'date'
p2
cdatetime
date
p3
(S'\x07\xde\x0b\x16'
tRp4
s.(dp1
S'date'
p2
cdatetime
date
p3
(S'\x07\xde\x0b\x17'
tRp4
s.(dp1
S'date'
p2
cdatetime
date
p3
(S'\x07\xde\x0b\x18'
tRp4
s.(dp1
S'date'
p2
cdatetime
date
p3
(S'\x07\xde\x0b\x19'
tRp4
s.(dp1
S'date'
p2
cdatetime
date
p3
(S'\x07\xde\x0b\x1a'
tRp4
s.(dp1
S'date'
p2
cdatetime
date
p3
(S'\x07\xde\x0b\x1b'
tRp4
s.(dp1
S'date'
p2
cdatetime
date
p3
(S'\x07\xde\x0b\x1c'
tRp4
s.(dp1
S'date'
p2
cdatetime
date
p3
(S'\x07\xde\x0b\x1d'
tRp4
s.(dp1
S'date'
p2
cdatetime
date
p3
(S'\x07\xde\x0b\x1e'
tRp4
s.(dp1
S'date'
p2
cdatetime
date
p3
(S'\x07\xde\x0c\x01'
tRp4
s.(dp1
S'date'
p2
cdatetime
date
p3
(S'\x07\xde\x0c\x02'
tRp4
s.(dp1
S'date'
p2
cdatetime
date
p3
(S'\x07\xde\x0c\x03'
tRp4
s.(dp1
S'date'
p2
cdatetime
date
p3
(S'\x07\xde\x0c\x04'
tRp4
s.(dp1
S'date'
p2
cdatetime
date
p3
(S'\x07\xde\x0c\x05'
tRp4
s.(dp1
S'date'
p2
cdatetime
date
p3
(S'\x07\xde\x0c\x06'
tRp4
s.(dp1
S'date'
p2
cdatetime
date
p3
(S'\x07\xde\x0c\x07'
tRp4
s.(dp1
S'date'
p2
cdatetime
date
p3
(S'\x07\xde\x0c\x08'
tRp4
s.(dp1
S'date'
p2
cdatetime
date
p3
(S'\x07\xde\x0c\t'
tRp4
s.(dp1
S'date'
p2
cdatetime
date
p3
(S'\x07\xde\x0c\n'
tRp4
s.(dp1
S'date'
p2
cdatetime
date
p3
(S'\x07\xde\x0c\x0b'
tRp4
s.(dp1
S'date'
p2
cdatetime
date
p3
(S'\x07\xde\x0c\x0c'
tRp4
s.(dp1
S'date'
p2
cdatetime
date
p3
(S'\x07\xde\x0c\r'
tRp4
s.(dp1
S'date'
p2
cdatetime
date
p3
(S'\x07\xde\x0c\x0e'
tRp4
s.(dp1
S'date'
p2
cdatetime
date
p3
(S'\x07\xde\x0c\x0f'
tRp4
s.(dp1
S'date'
p2
cdatetime
date
p3
(S'\x07\xde\x0c\x10'
tRp4
s.(dp1
S'date'
p2
cdatetime
date
p3
(S'\x07\xde\x0c\x11'
tRp4
s.(dp1
S'date'
p2
cdatetime
date
p3
(S'\x07\xde\x0c\x12'
tRp4
s.(dp1
S'date'
p2
cdatetime
date
p3
(S'\x07\xde\x0c\x13'
tRp4
s.(dp1
S'date'
p2
cdatetime
date
p3
(S'\x07\xde\x0c\x14'
tRp4
s.(dp1
S'date'
p2
cdatetime
date
p3
(S'\x07\xde\x0c\x15'
tRp4
s.(dp1
S'date'
p2
cdatetime
date
p3
(S'\x07\xde\x0c\x16'
tRp4
s.(dp1
S'date'
p2
cdatetime
date
p3
(S'\x07\xde\x0c\x17'
tRp4
s.(dp1
S'date'
p2
cdatetime
date
p3
(S'\x07\xde\x0c\x18'
tRp4
s.(dp1
S'date'
p2
cdatetime
date
p3
(S'\x07\xde\x0c\x19'
tRp4
s.(dp1
S'date'
p2
cdatetime
date
p3
(S'\x07\xde\x0c\x1a'
tRp4
s.(dp1
S'date'
p2
cdatetime
date
p3
(S'\x07\xde\x0c\x1b'
tRp4
s.(dp1
S'date'
p2
cdatetime
date
p3
(S'\x07\xde\x0c\x1c'
tRp4
s.(dp1
S'date'
p2
cdatetime
date
p3
(S'\x07\xde\x0c\x1d'
tRp4
s.(dp1
S'date'
p2
cdatetime
date
p3
(S'\x07\xde\x0c\x1e'
tRp4
s.(dp1
S'date'
p2
cdatetime
date
p3
(S'\x07\xde\x0c\x1f'
tRp4
s.(dp1
S'date'
p2
cdatetime
date
p3
(S'\x07\xdf\x01\x01'
tRp4
s.(dp1
S'date'
p2
cdatetime
date
p3
(S'\x07\xdf\x01\x02'
tRp4
s.(dp1
S'date'
p2
cdatetime
date
p3
(S'\x07\xdf\x01\x03'
tRp4
s.(dp1
S'date'
p2
cdatetime
date
p3
(S'\x07\xdf\x01\x04'
tRp4
s.(dp1
S'date'
p2
cdatetime
date
p3
(S'\x07\xdf\x01\x05'
tRp4
s.(dp1
S'date'
p2
cdatetime
date
p3
(S'\x07\xdf\x01\x06'
tRp4
s.(dp1
S'date'
p2
cdatetime
date
p3
(S'\x07\xdf\x01\x07'
tRp4
s.(dp1
S'date'
p2
cdatetime
date
p3
(S'\x07\xdf\x01\x08'
tRp4
s.(dp1
S'date'
p2
cdatetime
date
p3
(S'\x07\xdf\x01\t'
tRp4
s.(dp1
S'date'
p2
cdatetime
date
p3
(S'\x07\xdf\x01\n'
tRp4
s.(dp1
S'date'
p2
cdatetime
date
p3
(S'\x07\xdf\x01\x0b'
tRp4
s.(dp1
S'date'
p2
cdatetime
date
p3
(S'\x07\xdf\x01\x0c'
tRp4
s.(dp1
S'date'
p2
cdatetime
date
p3
(S'\x07\xdf\x01\r'
tRp4
s.(dp1
S'date'
p2
cdatetime
date
p3
(S'\x07\xdf\x01\x0e'
tRp4
s.(dp1
S'date'
p2
cdatetime
date
p3
(S'\x07\xdf\x01\x0f'
tRp4
s.(dp1
S'date'
p2
cdatetime
date
p3
(S'\x07\xdf\x01\x10'
tRp4
s.(dp1
S'date'
p2
cdatetime
date
p3
(S'\x07\xdf\x01\x11'
tRp4
s.(dp1
S'date'
p2
cdatetime
date
p3
(S'\x07\xdf\x01\x12'
tRp4
s.(dp1
S'date'
p2
cdatetime
date
p3
(S'\x07\xdf\x01\x13'
tRp4
s.(dp1
S'date'
p2
cdatetime
date
p3
(S'\x07\xdf\x01\x14'
tRp4
s.(dp1
S'date'
p2
cdatetime
date
p3
(S'\x07\xdf\x01\x15'
tRp4
s.(dp1
S'date'
p2
cdatetime
date
p3
(S'\x07\xdf\x01\x16'
tRp4
s.(dp1
S'date'
p2
cdatetime
date
p3
(S'\x07\xdf\x01\x17'
tRp4
s.(dp1
S'date'
p2
cdatetime
date
p3
(S'\x07\xdf\x01\x18'
tRp4
s.(dp1
S'date'
p2
cdatetime
date
p3
(S'\x07\xdf\x01\x19'
tRp4
s.(dp1
S'date'
p2
cdatetime
date
p3
(S'\x07\xdf\x01\x1a'
tRp4
s.(dp1
S'date'
p2
cdatetime
date
p3
(S'\x07\xdf\x01\x1b'
tRp4
s.(dp1
S'date'
p2
cdatetime
date
p3
(S'\x07\xdf\x01\x1c'
tRp4
s.(dp1
S'date'
p2
cdatetime
date
p3
(S'\x07\xdf\x01\x1d'
tRp4
s.(dp1
S'date'
p2
cdatetime
date
p3
(S'\x07\xdf\x01\x1e'
tRp4
s.(dp1
S'date'
p2
cdatetime
date
p3
(S'\x07\xdf\x01\x1f'
tRp4
s.(dp1
S'date'
p2
cdatetime
date
p3
(S'\x07\xdf\x02\x01'
tRp4
s.(dp1
S'date'
p2
cdatetime
date
p3
(S'\x07\xdf\x02\x02'
tRp4
s.(dp1
S'date'
p2
cdatetime
date
p3
(S'\x07\xdf\x02\x03'
tRp4
s.(dp1
S'date'
p2
cdatetime
date
p3
(S'\x07\xdf\x02\x04'
tRp4
s.(dp1
S'date'
p2
cdatetime
date
p3
(S'\x07\xdf\x02\x05'
tRp4
s.(dp1
S'date'
p2
cdatetime
date
p3
(S'\x07\xdf\x02\x06'
tRp4
s.(dp1
S'date'
p2
cdatetime
date
p3
(S'\x07\xdf\x02\x07'
tRp4
s.(dp1
S'date'
p2
cdatetime
date
p3
(S'\x07\xdf\x02\x08'
tRp4
s.(dp1
S'date'
p2
cdatetime
date
p3
(S'\x07\xdf\x02\t'
tRp4
s.(dp1
S'date'
p2
cdatetime
date
p3
(S'\x07\xdf\x02\n'
tRp4
s.(dp1
S'date'
p2
cdatetime
date
p3
(S'\x07\xdf\x02\x0b'
tRp4
s.(dp1
S'date'
p2
cdatetime
date
p3
(S'\x07\xdf\x02\x0c'
tRp4
s.(dp1
S'date'
p2
cdatetime
date
p3
(S'\x07\xdf\x02\r'
tRp4
s.(dp1
S'date'
p2
cdatetime
date
p3
(S'\x07\xdf\x02\x0e'
tRp4
s.(dp1
S'date'
p2
cdatetime
date
p3
(S'\x07\xdf\x02\x0f'
tRp4
s.(dp1
S'date'
p2
cdatetime
date
p3
(S'\x07\xdf\x02\x10'
tRp4
s.(dp1
S'date'
p2
cdatetime
date
p3
(S'\x07\xdf\x02\x11'
tRp4
s.(dp1
S'date'
p2
cdatetime
date
p3
(S'\x07\xdf\x02\x12'
tRp4
s.(dp1
S'date'
p2
cdatetime
date
p3
(S'\x07\xdf\x02\x13'
tRp4
s.(dp1
S'date'
p2
cdatetime
date
p3
(S'\x07\xdf\x02\x14'
tRp4
s.(dp1
S'date'
p2
cdatetime
date
p3
(S'\x07\xdf\x02\x15'
tRp4
s.(dp1
S'date'
p2
cdatetime
date
p3
(S'\x07\xdf\x02\x16'
tRp4
s.(dp1
S'date'
p2
cdatetime
date
p3
(S'\x07\xdf\x02\x17'
tRp4
s.(dp1
S'date'
p2
cdatetime
date
p3
(S'\x07\xdf\x02\x18'
tRp4
s.(dp1
S'date'
p2
cdatetime
date
p3
(S'\x07\xdf\x02\x19'
tRp4
s.(dp1
S'date'
p2
cdatetime
date
p3
(S'\x07\xdf\x02\x1a'
tRp4
s.(dp1
S'date'
p2
cdatetime
date
p3
(S'\x07\xdf\x02\x1b'
tRp4
s.(dp1
S'date'
p2
cdatetime
date
p3
(S'\x07\xdf\x02\x1c'
tRp4
s.(dp1
S'date'
p2
cdatetime
date
p3
(S'\x07\xdf\x03\x01'
tRp4
s.(dp1
S'date'
p2
cdatetime
date
p3
(S'\x07\xdf\x03\x02'
tRp4
s.(dp1
S'date'
p2
cdatetime
date
p3
(S'\x07\xdf\x03\x03'
tRp4
s.(dp1
S'date'
p2
cdatetime
date
p3
(S'\x07\xdf\x03\x04'
tRp4
s.(dp1
S'date'
p2
cdatetime
date
p3
(S'\x07\xdf\x03\x05'
tRp4
s.(dp1
S'date'
p2
cdatetime
date
p3
(S'\x07\xdf\x03\x06'
tRp4
s.(dp1
S'date'
p2
cdatetime
date
p3
(S'\x07\xdf\x03\x07'
tRp4
s.(dp1
S'date'
p2
cdatetime
date
p3
(S'\x07\xdf\x03\x08'
tRp4
s.(dp1
S'date'
p2
cdatetime
date
p3
(S'\x07\xdf\x03\t'
tRp4
s.(dp1
S'date'
p2
cdatetime
date
p3
(S'\x07\xdf\x03\n'
tRp4
s.(dp1
S'date'
p2
cdatetime
date
p3
(S'\x07\xdf\x03\x0b'
tRp4
s.(dp1
S'date'
p2
cdatetime
date
p3
(S'\x07\xdf\x03\x0c'
tRp4
s.(dp1
S'date'
p2
cdatetime
date
p3
(S'\x07\xdf\x03\r'
tRp4
s.(dp1
S'date'
p2
cdatetime
date
p3
(S'\x07\xdf\x03\x0e'
tRp4
s.(dp1
S'date'
p2
cdatetime
date
p3
(S'\x07\xdf\x03\x0f'
tRp4
s.(dp1
S'date'
p2
cdatetime
date
p3
(S'\x07\xdf\x03\x10'
tRp4
s.(dp1
S'date'
p2
cdatetime
date
p3
(S'\x07\xdf\x03\x11'
tRp4
s.(dp1
S'date'
p2
cdatetime
date
p3
(S'\x07\xdf\x03\x12'
tRp4
s.(dp1
S'date'
p2
cdatetime
date
p3
(S'\x07\xdf\x03\x13'
tRp4
s.(dp1
S'date'
p2
cdatetime
date
p3
(S'\x07\xdf\x03\x14'
tRp4
s.(dp1
S'date'
p2
cdatetime
date
p3
(S'\x07\xdf\x03\x15'
tRp4
s.(dp1
S'date'
p2
cdatetime
date
p3
(S'\x07\xdf\x03\x16'
tRp4
s.(dp1
S'date'
p2
cdatetime
date
p3
(S'\x07\xdf\x03\x17'
tRp4
s.(dp1
S'date'
p2
cdatetime
date
p3
(S'\x07\xdf\x03\x18'
tRp4
s.(dp1
S'date'
p2
cdatetime
date
p3
(S'\x07\xdf\x03\x19'
tRp4
s.(dp1
S'date'
p2
cdatetime
date
p3
(S'\x07\xdf\x03\x1a'
tRp4
s.(dp1
S'date'
p2
cdatetime
date
p3
(S'\x07\xdf\x03\x1b'
tRp4
s.(dp1
S'date'
p2
cdatetime
date
p3
(S'\x07\xdf\x03\x1c'
tRp4
s.(dp1
S'date'
p2
cdatetime
date
p3
(S'\x07\xdf\x03\x1d'
tRp4
s.(dp1
S'date'
p2
cdatetime
date
p3
(S'\x07\xdf\x03\x1e'
tRp4
s.(dp1
S'date'
p2
cdatetime
date
p3
(S'\x07\xdf\x03\x1f'
tRp4
s.(dp1
S'date'
p2
cdatetime
date
p3
(S'\x07\xdf\x04\x01'
tRp4
s.(dp1
S'date'
p2
cdatetime
date
p3
(S'\x07\xdf\x04\x02'
tRp4
s.(dp1
S'date'
p2
cdatetime
date
p3
(S'\x07\xdf\x04\x03'
tRp4
s.(dp1
S'date'
p2
cdatetime
date
p3
(S'\x07\xdf\x04\x04'
tRp4
s.(dp1
S'date'
p2
cdatetime
date
p3
(S'\x07\xdf\x04\x05'
tRp4
s.(dp1
S'date'
p2
cdatetime
date
p3
(S'\x07\xdf\x04\x06'
tRp4
s.(dp1
S'date'
p2
cdatetime
date
p3
(S'\x07\xdf\x04\x07'
tRp4
s.(dp1
S'date'
p2
cdatetime
date
p3
(S'\x07\xdf\x04\x08'
tRp4
s.(dp1
S'date'
p2
cdatetime
date
p3
(S'\x07\xdf\x04\t'
tRp4
s.(dp1
S'date'
p2
cdatetime
date
p3
(S'\x07\xdf\x04\n'
tRp4
s.(dp1
S'date'
p2
cdatetime
date
p3
(S'\x07\xdf\x04\x0b'
tRp4
s.(dp1
S'date'
p2
cdatetime
date
p3
(S'\x07\xdf\x04\x0c'
tRp4
s.(dp1
S'date'
p2
cdatetime
date
p3
(S'\x07\xdf\x04\r'
tRp4
s.(dp1
S'date'
p2
cdatetime
date
p3
(S'\x07\xdf\x04\x0e'
tRp4
s.(dp1
S'date'
p2
cdatetime
date
p3
(S'\x07\xdf\x04\x0f'
tRp4
s.(dp1
S'date'
p2
cdatetime
date
p3
(S'\x07\xdf\x04\x10'
tRp4
s.(dp1
S'date'
p2
cdatetime
date
p3
(S'\x07\xdf\x04\x11'
tRp4
s.(dp1
S'date'
p2
cdatetime
date
p3
(S'\x07\xdf\x04\x12'
tRp4
s.(dp1
S'date'
p2
cdatetime
date
p3
(S'\x07\xdf\x04\x13'
tRp4
s.(dp1
S'date'
p2
cdatetime
date
p3
(S'\x07\xdf\x04\x14'
tRp4
s.(dp1
S'date'
p2
cdatetime
date
p3
(S'\x07\xdf\x04\x15'
tRp4
s.(dp1
S'date'
p2
cdatetime
date
p3
(S'\x07\xdf\x04\x16'
tRp4
s.(dp1
S'date'
p2
cdatetime
date
p3
(S'\x07\xdf\x04\x17'
tRp4
s.(dp1
S'date'
p2
cdatetime
date
p3
(S'\x07\xdf\x04\x18'
tRp4
s.(dp1
S'date'
p2
cdatetime
date
p3
(S'\x07\xdf\x04\x19'
tRp4
s.(dp1
S'date'
p2
cdatetime
date
p3
(S'\x07\xdf\x04\x1a'
tRp4
s.(dp1
S'date'
p2
cdatetime
date
p3
(S'\x07\xdf\x04\x1b'
tRp4
s.(dp1
S'date'
p2
cdatetime
date
p3
(S'\x07\xdf\x04\x1c'
tRp4
s.(dp1
S'date'
p2
cdatetime
date
p3
(S'\x07\xdf\x04\x1d'
tRp4
s.(dp1
S'date'
p2
cdatetime
date
p3
(S'\x07\xdf\x04\x1e'
tRp4
s.(dp1
S'date'
p2
cdatetime
date
p3
(S'\x07\xdf\x05\x01'
tRp4
s.(dp1
S'date'
p2
cdatetime
date
p3
(S'\x07\xdf\x05\x02'
tRp4
s.(dp1
S'date'
p2
cdatetime
date
p3
(S'\x07\xdf\x05\x03'
tRp4
s.(dp1
S'date'
p2
cdatetime
date
p3
(S'\x07\xdf\x05\x04'
tRp4
s.(dp1
S'date'
p2
cdatetime
date
p3
(S'\x07\xdf\x05\x05'
tRp4
s.(dp1
S'date'
p2
cdatetime
date
p3
(S'\x07\xdf\x05\x06'
tRp4
s.(dp1
S'date'
p2
cdatetime
date
p3
(S'\x07\xdf\x05\x07'
tRp4
s.(dp1
S'date'
p2
cdatetime
date
p3
(S'\x07\xdf\x05\x08'
tRp4
s.(dp1
S'date'
p2
cdatetime
date
p3
(S'\x07\xdf\x05\t'
tRp4
s.(dp1
S'date'
p2
cdatetime
date
p3
(S'\x07\xdf\x05\n'
tRp4
s.(dp1
S'date'
p2
cdatetime
date
p3
(S'\x07\xdf\x05\x0b'
tRp4
s.(dp1
S'date'
p2
cdatetime
date
p3
(S'\x07\xdf\x05\x0c'
tRp4
s.(dp1
S'date'
p2
cdatetime
date
p3
(S'\x07\xdf\x05\r'
tRp4
s.(dp1
S'date'
p2
cdatetime
date
p3
(S'\x07\xdf\x05\x0e'
tRp4
s.(dp1
S'date'
p2
cdatetime
date
p3
(S'\x07\xdf\x05\x0f'
tRp4
s.(dp1
S'date'
p2
cdatetime
date
p3
(S'\x07\xdf\x05\x10'
tRp4
s.(dp1
S'date'
p2
cdatetime
date
p3
(S'\x07\xdf\x05\x11'
tRp4
s.(dp1
S'date'
p2
cdatetime
date
p3
(S'\x07\xdf\x05\x12'
tRp4
s.(dp1
S'date'
p2
cdatetime
date
p3
(S'\x07\xdf\x05\x13'
tRp4
s.(dp1
S'date'
p2
cdatetime
date
p3
(S'\x07\xdf\x05\x14'
tRp4
s.(dp1
S'date'
p2
cdatetime
date
p3
(S'\x07\xdf\x05\x15'
tRp4
s.(dp1
S'date'
p2
cdatetime
date
p3
(S'\x07\xdf\x05\x16'
tRp4
s.(dp1
S'date'
p2
cdatetime
date
p3
(S'\x07\xdf\x05\x17'
tRp4
s.(dp1
S'date'
p2
cdatetime
date
p3
(S'\x07\xdf\x05\x18'
tRp4
s.(dp1
S'date'
p2
cdatetime
date
p3
(S'\x07\xdf\x05\x19'
tRp4
s.(dp1
S'date'
p2
cdatetime
date
p3
(S'\x07\xdf\x05\x1a'
tRp4
s.(dp1
S'date'
p2
cdatetime
date
p3
(S'\x07\xdf\x05\x1b'
tRp4
s.(dp1
S'date'
p2
cdatetime
date
p3
(S'\x07\xdf\x05\x1c'
tRp4
s.(dp1
S'date'
p2
cdatetime
date
p3
(S'\x07\xdf\x05\x1d'
tRp4
s.(dp1
S'date'
p2
cdatetime
date
p3
(S'\x07\xdf\x05\x1e'
tRp4
s.(dp1
S'date'
p2
cdatetime
date
p3
(S'\x07\xdf\x05\x1f'
tRp4
s.(dp1
S'date'
p2
cdatetime
date
p3
(S'\x07\xdf\x06\x01'
tRp4
s.(dp1
S'date'
p2
cdatetime
date
p3
(S'\x07\xdf\x06\x02'
tRp4
s.(dp1
S'date'
p2
cdatetime
date
p3
(S'\x07\xdf\x06\x03'
tRp4
s.(dp1
S'date'
p2
cdatetime
date
p3
(S'\x07\xdf\x06\x04'
tRp4
s.(dp1
S'date'
p2
cdatetime
date
p3
(S'\x07\xdf\x06\x05'
tRp4
s.(dp1
S'date'
p2
cdatetime
date
p3
(S'\x07\xdf\x06\x06'
tRp4
s.(dp1
S'date'
p2
cdatetime
date
p3
(S'\x07\xdf\x06\x07'
tRp4
s.(dp1
S'date'
p2
cdatetime
date
p3
(S'\x07\xdf\x06\x08'
tRp4
s.(dp1
S'date'
p2
cdatetime
date
p3
(S'\x07\xdf\x06\t'
tRp4
s.(dp1
S'date'
p2
cdatetime
date
p3
(S'\x07\xdf\x06\n'
tRp4
s.(dp1
S'date'
p2
cdatetime
date
p3
(S'\x07\xdf\x06\x0b'
tRp4
s.(dp1
S'date'
p2
cdatetime
date
p3
(S'\x07\xdf\x06\x0c'
tRp4
s.(dp1
S'date'
p2
cdatetime
date
p3
(S'\x07\xdf\x06\r'
tRp4
s.(dp1
S'date'
p2
cdatetime
date
p3
(S'\x07\xdf\x06\x0e'
tRp4
s.(dp1
S'date'
p2
cdatetime
date
p3
(S'\x07\xdf\x06\x0f'
tRp4
s.(dp1
S'date'
p2
cdatetime
date
p3
(S'\x07\xdf\x06\x10'
tRp4
s.(dp1
S'date'
p2
cdatetime
date
p3
(S'\x07\xdf\x06\x11'
tRp4
s.(dp1
S'date'
p2
cdatetime
date
p3
(S'\x07\xdf\x06\x12'
tRp4
s.(dp1
S'date'
p2
cdatetime
date
p3
(S'\x07\xdf\x06\x13'
tRp4
s.(dp1
S'date'
p2
cdatetime
date
p3
(S'\x07\xdf\x06\x14'
tRp4
s.(dp1
S'date'
p2
cdatetime
date
p3
(S'\x07\xdf\x06\x15'
tRp4
s.(dp1
S'date'
p2
cdatetime
date
p3
(S'\x07\xdf\x06\x16'
tRp4
s.(dp1
S'date'
p2
cdatetime
date
p3
(S'\x07\xdf\x06\x17'
tRp4
s.(dp1
S'date'
p2
cdatetime
date
p3
(S'\x07\xdf\x06\x18'
tRp4
s.(dp1
S'date'
p2
cdatetime
date
p3
(S'\x07\xdf\x06\x19'
tRp4
s.(dp1
S'date'
p2
cdatetime
date
p3
(S'\x07\xdf\x06\x1a'
tRp4
s.(dp1
S'date'
p2
cdatetime
date
p3
(S'\x07\xdf\x06\x1b'
tRp4
s.(dp1
S'date'
p2
cdatetime
date
p3
(S'\x07\xdf\x06\x1c'
tRp4
s.(dp1
S'date'
p2
cdatetime
date
p3
(S'\x07\xdf\x06\x1d'
tRp4
s.(dp1
S'date'
p2
cdatetime
date
p3
(S'\x07\xdf\x06\x1e'
tRp4
s.(dp1
S'date'
p2
cdatetime
date
p3
(S'\x07\xdf\x07\x01'
tRp4
s.(dp1
S'date'
p2
cdatetime
date
p3
(S'\x07\xdf\x07\x02'
tRp4
s.(dp1
S'date'
p2
cdatetime
date
p3
(S'\x07\xdf\x07\x03'
tRp4
s.(dp1
S'date'
p2
cdatetime
date
p3
(S'\x07\xdf\x07\x04'
tRp4
s.(dp1
S'date'
p2
cdatetime
date
p3
(S'\x07\xdf\x07\x05'
tRp4
s.(dp1
S'date'
p2
cdatetime
date
p3
(S'\x07\xdf\x07\x06'
tRp4
s.(dp1
S'date'
p2
cdatetime
date
p3
(S'\x07\xdf\x07\x07'
tRp4
s.(dp1
S'date'
p2
cdatetime
date
p3
(S'\x07\xdf\x07\x08'
tRp4
s.(dp1
S'date'
p2
cdatetime
date
p3
(S'\x07\xdf\x07\t'
tRp4
s.(dp1
S'date'
p2
cdatetime
date
p3
(S'\x07\xdf\x07\n'
tRp4
s.(dp1
S'date'
p2
cdatetime
date
p3
(S'\x07\xdf\x07\x0b'
tRp4
s.(dp1
S'date'
p2
cdatetime
date
p3
(S'\x07\xdf\x07\x0c'
tRp4
s.(dp1
S'date'
p2
cdatetime
date
p3
(S'\x07\xdf\x07\r'
tRp4
s.(dp1
S'date'
p2
cdatetime
date
p3
(S'\x07\xdf\x07\x0e'
tRp4
s.(dp1
S'date'
p2
cdatetime
date
p3
(S'\x07\xdf\x07\x0f'
tRp4
s.(dp1
S'date'
p2
cdatetime
date
p3
(S'\x07\xdf\x07\x10'
tRp4
s.(dp1
S'date'
p2
cdatetime
date
p3
(S'\x07\xdf\x07\x11'
tRp4
s.(dp1
S'date'
p2
cdatetime
date
p3
(S'\x07\xdf\x07\x12'
tRp4
s.(dp1
S'date'
p2
cdatetime
date
p3
(S'\x07\xdf\x07\x13'
tRp4
s.(dp1
S'date'
p2
cdatetime
date
p3
(S'\x07\xdf\x07\x14'
tRp4
s.(dp1
S'date'
p2
cdatetime
date
p3
(S'\x07\xdf\x07\x15'
tRp4
s.(dp1
S'date'
p2
cdatetime
date
p3
(S'\x07\xdf\x07\x16'
tRp4
s.(dp1
S'date'
p2
cdatetime
date
p3
(S'\x07\xdf\x07\x17'
tRp4
s.(dp1
S'date'
p2
cdatetime
date
p3
(S'\x07\xdf\x07\x18'
tRp4
s.(dp1
S'date'
p2
cdatetime
date
p3
(S'\x07\xdf\x07\x19'
tRp4
s.(dp1
S'date'
p2
cdatetime
date
p3
(S'\x07\xdf\x07\x1a'
tRp4
s.(dp1
S'date'
p2
cdatetime
date
p3
(S'\x07\xdf\x07\x1b'
tRp4
s.(dp1
S'date'
p2
cdatetime
date
p3
(S'\x07\xdf\x07\x1c'
tRp4
s.(dp1
S'date'
p2
cdatetime
date
p3
(S'\x07\xdf\x07\x1d'
tRp4
s.(dp1
S'date'
p2
cdatetime
date
p3
(S'\x07\xdf\x07\x1e'
tRp4
s.(dp1
S'date'
p2
cdatetime
date
p3
(S'\x07\xdf\x07\x1f'
tRp4
s.(dp1
S'date'
p2
cdatetime
date
p3
(S'\x07\xdf\x08\x01'
tRp4
s.